; Function Attrs: nounwind uwtable
define range(i32 -1, 1) i32 @H5C_log_write_mark_unserialized_entry_msg(ptr nocapture noundef readonly %0, ptr noundef %1, i32 noundef %2) local_unnamed_addr #0 {
  %4 = getelementptr inbounds i8, ptr %0, i64 8
  %5 = load ptr, ptr %4, align 8
  %6 = getelementptr inbounds i8, ptr %5, i64 8
  %7 = load ptr, ptr %6, align 8
  %8 = getelementptr inbounds i8, ptr %7, i64 112
  %9 = load ptr, ptr %8, align 8
  %.not = icmp eq ptr %9, null
  br i1 %.not, label %19, label %10

10:                                               ; preds = %3
  %11 = getelementptr inbounds i8, ptr %5, i64 16
  %12 = load ptr, ptr %11, align 8
  %13 = tail call i32 %9(ptr noundef %12, ptr noundef %1, i32 noundef %2) #3
  %14 = icmp slt i32 %13, 0
  br i1 %14, label %15, label %19

15:                                               ; preds = %10
  %16 = load i64, ptr @H5E_CACHE_g, align 8
  %17 = load i64, ptr @H5E_LOGGING_g, align 8
  %18 = tail call i32 (ptr, ptr, i32, i64, i64, ptr, ...) @H5E_printf_stack(ptr noundef nonnull @.str, ptr noundef nonnull @__func__.H5C_log_write_mark_unserialized_entry_msg, i32 noundef 531, i64 noundef %16, i64 noundef %17, ptr noundef nonnull @.str.22) #3
  br label %19

19:                                               ; preds = %3, %10, %15
  %.0 = phi i32 [ -1, %15 ], [ 0, %10 ], [ 0, %3 ]
  ret i32 %.0
}